target datalayout = "e-m:e-p270:32:32-p271:32:32-p272:64:64-i64:64-i128:128-f80:128-n8:16:32:64-S128"
target triple = "x86_64-pc-linux-gnu"

%"struct.std::_Vector_base" = type { %"struct.std::_Vector_base<cv::dnn::dnn4_v20241223::detail::LayerPin, std::allocator<cv::dnn::dnn4_v20241223::detail::LayerPin>>::_Vector_impl" }
%"struct.std::_Vector_base<cv::dnn::dnn4_v20241223::detail::LayerPin, std::allocator<cv::dnn::dnn4_v20241223::detail::LayerPin>>::_Vector_impl" = type { %"struct.std::_Vector_base<cv::dnn::dnn4_v20241223::detail::LayerPin, std::allocator<cv::dnn::dnn4_v20241223::detail::LayerPin>>::_Vector_impl_data" }
%"struct.std::_Vector_base<cv::dnn::dnn4_v20241223::detail::LayerPin, std::allocator<cv::dnn::dnn4_v20241223::detail::LayerPin>>::_Vector_impl_data" = type { ptr, ptr, ptr }
%"struct.cv::dnn::dnn4_v20241223::detail::LayerPin" = type { i32, i32 }
%"class.__gnu_cxx::__normal_iterator" = type { ptr }
%"struct.__gnu_cxx::__ops::_Iter_less_iter" = type { i8 }

; Function Attrs: mustprogress nounwind uwtable
define linkonce_odr hidden noundef zeroext i1 @_ZNK2cv3dnn14dnn4_v202412236detail8LayerPinltERKS3_(ptr noundef nonnull align 4 dereferenceable(8) %0, ptr noundef nonnull align 4 dereferenceable(8) %1) #5 comdat align 2 {
  %3 = alloca ptr, align 8
  %4 = alloca ptr, align 8
  store ptr %0, ptr %3, align 8, !tbaa !234
  store ptr %1, ptr %4, align 8, !tbaa !234
  %5 = load ptr, ptr %3, align 8
  %6 = getelementptr inbounds nuw %"struct.cv::dnn::dnn4_v20241223::detail::LayerPin", ptr %5, i32 0, i32 0
  %7 = load i32, ptr %6, align 4, !tbaa !235
  %8 = load ptr, ptr %4, align 8, !tbaa !234
  %9 = getelementptr inbounds nuw %"struct.cv::dnn::dnn4_v20241223::detail::LayerPin", ptr %8, i32 0, i32 0
  %10 = load i32, ptr %9, align 4, !tbaa !235
  %11 = icmp slt i32 %7, %10
  br i1 %11, label %28, label %12

12:                                               ; preds = %2
  %13 = getelementptr inbounds nuw %"struct.cv::dnn::dnn4_v20241223::detail::LayerPin", ptr %5, i32 0, i32 0
  %14 = load i32, ptr %13, align 4, !tbaa !235
  %15 = load ptr, ptr %4, align 8, !tbaa !234
  %16 = getelementptr inbounds nuw %"struct.cv::dnn::dnn4_v20241223::detail::LayerPin", ptr %15, i32 0, i32 0
  %17 = load i32, ptr %16, align 4, !tbaa !235
  %18 = icmp eq i32 %14, %17
  br i1 %18, label %19, label %26

19:                                               ; preds = %12
  %20 = getelementptr inbounds nuw %"struct.cv::dnn::dnn4_v20241223::detail::LayerPin", ptr %5, i32 0, i32 1
  %21 = load i32, ptr %20, align 4, !tbaa !237
  %22 = load ptr, ptr %4, align 8, !tbaa !234
  %23 = getelementptr inbounds nuw %"struct.cv::dnn::dnn4_v20241223::detail::LayerPin", ptr %22, i32 0, i32 1
  %24 = load i32, ptr %23, align 4, !tbaa !237
  %25 = icmp slt i32 %21, %24
  br label %26

26:                                               ; preds = %19, %12
  %27 = phi i1 [ false, %12 ], [ %25, %19 ]
  br label %28

28:                                               ; preds = %26, %2
  %29 = phi i1 [ true, %2 ], [ %27, %26 ]
  ret i1 %29
}

; Function Attrs: mustprogress nounwind uwtable
define linkonce_odr hidden noundef nonnull align 8 dereferenceable(8) ptr @_ZNK9__gnu_cxx17__normal_iteratorIPKN2cv3dnn14dnn4_v202412236detail8LayerPinESt6vectorIS5_SaIS5_EEE4baseEv(ptr noundef nonnull align 8 dereferenceable(8) %0) #5 comdat align 2 {
  %2 = alloca ptr, align 8
  store ptr %0, ptr %2, align 8, !tbaa !433
  %3 = load ptr, ptr %2, align 8
  %4 = getelementptr inbounds nuw %"class.__gnu_cxx::__normal_iterator", ptr %3, i32 0, i32 0
  ret ptr %4
}

; Function Attrs: mustprogress nounwind uwtable
define linkonce_odr hidden noundef zeroext i1 @_ZNK9__gnu_cxx5__ops15_Iter_less_iterclINS_17__normal_iteratorIPKN2cv3dnn14dnn4_v202412236detail8LayerPinESt6vectorIS8_SaIS8_EEEESE_EEbT_T0_(ptr noundef nonnull align 1 dereferenceable(1) %0, ptr %1, ptr %2) #5 comdat align 2 {
  %4 = alloca %"class.__gnu_cxx::__normal_iterator", align 8
  %5 = alloca %"class.__gnu_cxx::__normal_iterator", align 8
  %6 = alloca ptr, align 8
  %7 = getelementptr inbounds nuw %"class.__gnu_cxx::__normal_iterator", ptr %4, i32 0, i32 0
  store ptr %1, ptr %7, align 8
  %8 = getelementptr inbounds nuw %"class.__gnu_cxx::__normal_iterator", ptr %5, i32 0, i32 0
  store ptr %2, ptr %8, align 8
  store ptr %0, ptr %6, align 8, !tbaa !1420
  %9 = call noundef nonnull align 4 dereferenceable(8) ptr @_ZNK9__gnu_cxx17__normal_iteratorIPKN2cv3dnn14dnn4_v202412236detail8LayerPinESt6vectorIS5_SaIS5_EEEdeEv(ptr noundef nonnull align 8 dereferenceable(8) %4) #3
  %10 = call noundef nonnull align 4 dereferenceable(8) ptr @_ZNK9__gnu_cxx17__normal_iteratorIPKN2cv3dnn14dnn4_v202412236detail8LayerPinESt6vectorIS5_SaIS5_EEEdeEv(ptr noundef nonnull align 8 dereferenceable(8) %5) #3
  %11 = call noundef zeroext i1 @_ZNK2cv3dnn14dnn4_v202412236detail8LayerPinltERKS3_(ptr noundef nonnull align 4 dereferenceable(8) %9, ptr noundef nonnull align 4 dereferenceable(8) %10)
  ret i1 %11
}

; Function Attrs: inlinehint mustprogress nounwind uwtable
define linkonce_odr hidden noundef zeroext i1 @_ZN9__gnu_cxxneIPKN2cv3dnn14dnn4_v202412236detail8LayerPinESt6vectorIS5_SaIS5_EEEEbRKNS_17__normal_iteratorIT_T0_EESG_(ptr noundef nonnull align 8 dereferenceable(8) %0, ptr noundef nonnull align 8 dereferenceable(8) %1) #6 comdat {
  %3 = alloca ptr, align 8
  %4 = alloca ptr, align 8
  store ptr %0, ptr %3, align 8, !tbaa !433
  store ptr %1, ptr %4, align 8, !tbaa !433
  %5 = load ptr, ptr %3, align 8, !tbaa !433
  %6 = call noundef nonnull align 8 dereferenceable(8) ptr @_ZNK9__gnu_cxx17__normal_iteratorIPKN2cv3dnn14dnn4_v202412236detail8LayerPinESt6vectorIS5_SaIS5_EEE4baseEv(ptr noundef nonnull align 8 dereferenceable(8) %5) #3
  %7 = load ptr, ptr %6, align 8, !tbaa !234
  %8 = load ptr, ptr %4, align 8, !tbaa !433
  %9 = call noundef nonnull align 8 dereferenceable(8) ptr @_ZNK9__gnu_cxx17__normal_iteratorIPKN2cv3dnn14dnn4_v202412236detail8LayerPinESt6vectorIS5_SaIS5_EEE4baseEv(ptr noundef nonnull align 8 dereferenceable(8) %8) #3
  %10 = load ptr, ptr %9, align 8, !tbaa !234
  %11 = icmp ne ptr %7, %10
  ret i1 %11
}

; Function Attrs: mustprogress nounwind uwtable
define linkonce_odr hidden noundef nonnull align 8 dereferenceable(8) ptr @_ZN9__gnu_cxx17__normal_iteratorIPKN2cv3dnn14dnn4_v202412236detail8LayerPinESt6vectorIS5_SaIS5_EEEppEv(ptr noundef nonnull align 8 dereferenceable(8) %0) #5 comdat align 2 {
  %2 = alloca ptr, align 8
  store ptr %0, ptr %2, align 8, !tbaa !433
  %3 = load ptr, ptr %2, align 8
  %4 = getelementptr inbounds nuw %"class.__gnu_cxx::__normal_iterator", ptr %3, i32 0, i32 0
  %5 = load ptr, ptr %4, align 8, !tbaa !435
  %6 = getelementptr inbounds nuw %"struct.cv::dnn::dnn4_v20241223::detail::LayerPin", ptr %5, i32 1
  store ptr %6, ptr %4, align 8, !tbaa !435
  ret ptr %3
}

; Function Attrs: inlinehint mustprogress nounwind uwtable
define linkonce_odr hidden noundef zeroext i1 @_ZN9__gnu_cxxeqIPKN2cv3dnn14dnn4_v202412236detail8LayerPinESt6vectorIS5_SaIS5_EEEEbRKNS_17__normal_iteratorIT_T0_EESG_(ptr noundef nonnull align 8 dereferenceable(8) %0, ptr noundef nonnull align 8 dereferenceable(8) %1) #6 comdat {
  %3 = alloca ptr, align 8
  %4 = alloca ptr, align 8
  store ptr %0, ptr %3, align 8, !tbaa !433
  store ptr %1, ptr %4, align 8, !tbaa !433
  %5 = load ptr, ptr %3, align 8, !tbaa !433
  %6 = call noundef nonnull align 8 dereferenceable(8) ptr @_ZNK9__gnu_cxx17__normal_iteratorIPKN2cv3dnn14dnn4_v202412236detail8LayerPinESt6vectorIS5_SaIS5_EEE4baseEv(ptr noundef nonnull align 8 dereferenceable(8) %5) #3
  %7 = load ptr, ptr %6, align 8, !tbaa !234
  %8 = load ptr, ptr %4, align 8, !tbaa !433
  %9 = call noundef nonnull align 8 dereferenceable(8) ptr @_ZNK9__gnu_cxx17__normal_iteratorIPKN2cv3dnn14dnn4_v202412236detail8LayerPinESt6vectorIS5_SaIS5_EEE4baseEv(ptr noundef nonnull align 8 dereferenceable(8) %8) #3
  %10 = load ptr, ptr %9, align 8, !tbaa !234
  %11 = icmp eq ptr %7, %10
  ret i1 %11
}

; Function Attrs: mustprogress uwtable
define linkonce_odr hidden ptr @_ZSt13__max_elementIN9__gnu_cxx17__normal_iteratorIPKN2cv3dnn14dnn4_v202412236detail8LayerPinESt6vectorIS6_SaIS6_EEEENS0_5__ops15_Iter_less_iterEET_SF_SF_T0_(ptr %0, ptr %1) #4 comdat {
  %3 = alloca %"class.__gnu_cxx::__normal_iterator", align 8
  %4 = alloca %"class.__gnu_cxx::__normal_iterator", align 8
  %5 = alloca %"class.__gnu_cxx::__normal_iterator", align 8
  %6 = alloca %"struct.__gnu_cxx::__ops::_Iter_less_iter", align 1
  %7 = alloca %"class.__gnu_cxx::__normal_iterator", align 8
  %8 = alloca %"class.__gnu_cxx::__normal_iterator", align 8
  %9 = getelementptr inbounds nuw %"class.__gnu_cxx::__normal_iterator", ptr %4, i32 0, i32 0
  store ptr %0, ptr %9, align 8
  %10 = getelementptr inbounds nuw %"class.__gnu_cxx::__normal_iterator", ptr %5, i32 0, i32 0
  store ptr %1, ptr %10, align 8
  %11 = call noundef zeroext i1 @_ZN9__gnu_cxxeqIPKN2cv3dnn14dnn4_v202412236detail8LayerPinESt6vectorIS5_SaIS5_EEEEbRKNS_17__normal_iteratorIT_T0_EESG_(ptr noundef nonnull align 8 dereferenceable(8) %4, ptr noundef nonnull align 8 dereferenceable(8) %5) #3
  br i1 %11, label %12, label %13

12:                                               ; preds = %2
  call void @llvm.memcpy.p0.p0.i64(ptr align 8 %3, ptr align 8 %4, i64 8, i1 false), !tbaa.struct !432
  br label %26

13:                                               ; preds = %2
  call void @llvm.memcpy.p0.p0.i64(ptr align 8 %3, ptr align 8 %4, i64 8, i1 false), !tbaa.struct !432
  br label %14

14:                                               ; preds = %24, %13
  %15 = call noundef nonnull align 8 dereferenceable(8) ptr @_ZN9__gnu_cxx17__normal_iteratorIPKN2cv3dnn14dnn4_v202412236detail8LayerPinESt6vectorIS5_SaIS5_EEEppEv(ptr noundef nonnull align 8 dereferenceable(8) %4) #3
  %16 = call noundef zeroext i1 @_ZN9__gnu_cxxneIPKN2cv3dnn14dnn4_v202412236detail8LayerPinESt6vectorIS5_SaIS5_EEEEbRKNS_17__normal_iteratorIT_T0_EESG_(ptr noundef nonnull align 8 dereferenceable(8) %15, ptr noundef nonnull align 8 dereferenceable(8) %5) #3
  br i1 %16, label %17, label %25

17:                                               ; preds = %14
  call void @llvm.memcpy.p0.p0.i64(ptr align 8 %7, ptr align 8 %3, i64 8, i1 false), !tbaa.struct !432
  call void @llvm.memcpy.p0.p0.i64(ptr align 8 %8, ptr align 8 %4, i64 8, i1 false), !tbaa.struct !432
  %18 = getelementptr inbounds nuw %"class.__gnu_cxx::__normal_iterator", ptr %7, i32 0, i32 0
  %19 = load ptr, ptr %18, align 8
  %20 = getelementptr inbounds nuw %"class.__gnu_cxx::__normal_iterator", ptr %8, i32 0, i32 0
  %21 = load ptr, ptr %20, align 8
  %22 = call noundef zeroext i1 @_ZNK9__gnu_cxx5__ops15_Iter_less_iterclINS_17__normal_iteratorIPKN2cv3dnn14dnn4_v202412236detail8LayerPinESt6vectorIS8_SaIS8_EEEESE_EEbT_T0_(ptr noundef nonnull align 1 dereferenceable(1) %6, ptr %19, ptr %21)
  br i1 %22, label %23, label %24

23:                                               ; preds = %17
  call void @llvm.memcpy.p0.p0.i64(ptr align 8 %3, ptr align 8 %4, i64 8, i1 false), !tbaa.struct !432
  br label %24

24:                                               ; preds = %23, %17
  br label %14, !llvm.loop !1419

25:                                               ; preds = %14
  br label %26

26:                                               ; preds = %25, %12
  %27 = getelementptr inbounds nuw %"class.__gnu_cxx::__normal_iterator", ptr %3, i32 0, i32 0
  %28 = load ptr, ptr %27, align 8
  ret ptr %28
}

; Function Attrs: inlinehint mustprogress nounwind uwtable
define linkonce_odr hidden void @_ZN9__gnu_cxx5__ops16__iter_less_iterEv() #6 comdat {
  ret void
}

; Function Attrs: mustprogress nounwind uwtable
define linkonce_odr hidden void @_ZN9__gnu_cxx17__normal_iteratorIPKN2cv3dnn14dnn4_v202412236detail8LayerPinESt6vectorIS5_SaIS5_EEEC2ERKS7_(ptr noundef nonnull align 8 dereferenceable(8) %0, ptr noundef nonnull align 8 dereferenceable(8) %1) unnamed_addr #5 comdat align 2 {
  %3 = alloca ptr, align 8
  %4 = alloca ptr, align 8
  store ptr %0, ptr %3, align 8, !tbaa !433
  store ptr %1, ptr %4, align 8, !tbaa !1240
  %5 = load ptr, ptr %3, align 8
  %6 = getelementptr inbounds nuw %"class.__gnu_cxx::__normal_iterator", ptr %5, i32 0, i32 0
  %7 = load ptr, ptr %4, align 8, !tbaa !1240
  %8 = load ptr, ptr %7, align 8, !tbaa !234
  store ptr %8, ptr %6, align 8, !tbaa !435
  ret void
}

; Function Attrs: mustprogress nounwind uwtable
define linkonce_odr hidden noundef nonnull align 4 dereferenceable(8) ptr @_ZNK9__gnu_cxx17__normal_iteratorIPKN2cv3dnn14dnn4_v202412236detail8LayerPinESt6vectorIS5_SaIS5_EEEdeEv(ptr noundef nonnull align 8 dereferenceable(8) %0) #5 comdat align 2 {
  %2 = alloca ptr, align 8
  store ptr %0, ptr %2, align 8, !tbaa !433
  %3 = load ptr, ptr %2, align 8
  %4 = getelementptr inbounds nuw %"class.__gnu_cxx::__normal_iterator", ptr %3, i32 0, i32 0
  %5 = load ptr, ptr %4, align 8, !tbaa !435
  ret ptr %5
}

; Function Attrs: inlinehint mustprogress uwtable
define linkonce_odr hidden ptr @_ZSt11max_elementIN9__gnu_cxx17__normal_iteratorIPKN2cv3dnn14dnn4_v202412236detail8LayerPinESt6vectorIS6_SaIS6_EEEEET_SD_SD_(ptr %0, ptr %1) #10 comdat {
  %3 = alloca %"class.__gnu_cxx::__normal_iterator", align 8
  %4 = alloca %"class.__gnu_cxx::__normal_iterator", align 8
  %5 = alloca %"class.__gnu_cxx::__normal_iterator", align 8
  %6 = alloca %"class.__gnu_cxx::__normal_iterator", align 8
  %7 = alloca %"class.__gnu_cxx::__normal_iterator", align 8
  %8 = getelementptr inbounds nuw %"class.__gnu_cxx::__normal_iterator", ptr %4, i32 0, i32 0
  store ptr %0, ptr %8, align 8
  %9 = getelementptr inbounds nuw %"class.__gnu_cxx::__normal_iterator", ptr %5, i32 0, i32 0
  store ptr %1, ptr %9, align 8
  call void @llvm.memcpy.p0.p0.i64(ptr align 8 %6, ptr align 8 %4, i64 8, i1 false), !tbaa.struct !432
  call void @llvm.memcpy.p0.p0.i64(ptr align 8 %7, ptr align 8 %5, i64 8, i1 false), !tbaa.struct !432
  call void @_ZN9__gnu_cxx5__ops16__iter_less_iterEv()
  %10 = getelementptr inbounds nuw %"class.__gnu_cxx::__normal_iterator", ptr %6, i32 0, i32 0
  %11 = load ptr, ptr %10, align 8
  %12 = getelementptr inbounds nuw %"class.__gnu_cxx::__normal_iterator", ptr %7, i32 0, i32 0
  %13 = load ptr, ptr %12, align 8
  %14 = call ptr @_ZSt13__max_elementIN9__gnu_cxx17__normal_iteratorIPKN2cv3dnn14dnn4_v202412236detail8LayerPinESt6vectorIS6_SaIS6_EEEENS0_5__ops15_Iter_less_iterEET_SF_SF_T0_(ptr %11, ptr %13)
  %15 = getelementptr inbounds nuw %"class.__gnu_cxx::__normal_iterator", ptr %3, i32 0, i32 0
  store ptr %14, ptr %15, align 8
  %16 = getelementptr inbounds nuw %"class.__gnu_cxx::__normal_iterator", ptr %3, i32 0, i32 0
  %17 = load ptr, ptr %16, align 8
  ret ptr %17
}

; Function Attrs: mustprogress nounwind uwtable
define linkonce_odr hidden ptr @_ZNKSt6vectorIN2cv3dnn14dnn4_v202412236detail8LayerPinESaIS4_EE3endEv(ptr noundef nonnull align 8 dereferenceable(24) %0) #5 comdat align 2 {
  %2 = alloca %"class.__gnu_cxx::__normal_iterator", align 8
  %3 = alloca ptr, align 8
  store ptr %0, ptr %3, align 8, !tbaa !34
  %4 = load ptr, ptr %3, align 8
  %5 = getelementptr inbounds nuw %"struct.std::_Vector_base", ptr %4, i32 0, i32 0
  %6 = getelementptr inbounds nuw %"struct.std::_Vector_base<cv::dnn::dnn4_v20241223::detail::LayerPin, std::allocator<cv::dnn::dnn4_v20241223::detail::LayerPin>>::_Vector_impl_data", ptr %5, i32 0, i32 1
  call void @_ZN9__gnu_cxx17__normal_iteratorIPKN2cv3dnn14dnn4_v202412236detail8LayerPinESt6vectorIS5_SaIS5_EEEC2ERKS7_(ptr noundef nonnull align 8 dereferenceable(8) %2, ptr noundef nonnull align 8 dereferenceable(8) %6) #3
  %7 = getelementptr inbounds nuw %"class.__gnu_cxx::__normal_iterator", ptr %2, i32 0, i32 0
  %8 = load ptr, ptr %7, align 8
  ret ptr %8
}

; Function Attrs: mustprogress nounwind uwtable
define linkonce_odr hidden ptr @_ZNKSt6vectorIN2cv3dnn14dnn4_v202412236detail8LayerPinESaIS4_EE5beginEv(ptr noundef nonnull align 8 dereferenceable(24) %0) #5 comdat align 2 {
  %2 = alloca %"class.__gnu_cxx::__normal_iterator", align 8
  %3 = alloca ptr, align 8
  store ptr %0, ptr %3, align 8, !tbaa !34
  %4 = load ptr, ptr %3, align 8
  %5 = getelementptr inbounds nuw %"struct.std::_Vector_base", ptr %4, i32 0, i32 0
  %6 = getelementptr inbounds nuw %"struct.std::_Vector_base<cv::dnn::dnn4_v20241223::detail::LayerPin, std::allocator<cv::dnn::dnn4_v20241223::detail::LayerPin>>::_Vector_impl_data", ptr %5, i32 0, i32 0
  call void @_ZN9__gnu_cxx17__normal_iteratorIPKN2cv3dnn14dnn4_v202412236detail8LayerPinESt6vectorIS5_SaIS5_EEEC2ERKS7_(ptr noundef nonnull align 8 dereferenceable(8) %2, ptr noundef nonnull align 8 dereferenceable(8) %6) #3
  %7 = getelementptr inbounds nuw %"class.__gnu_cxx::__normal_iterator", ptr %2, i32 0, i32 0
  %8 = load ptr, ptr %7, align 8
  ret ptr %8
}

; Function Attrs: mustprogress uwtable
define i64 @_ZNK2cv3dnn14dnn4_v202412233Net4Impl17getLatestLayerPinERKSt6vectorINS1_6detail8LayerPinESaIS6_EE(ptr noundef nonnull align 8 dereferenceable(504) %0, ptr noundef nonnull align 8 dereferenceable(24) %1) #4 align 2 {
  %3 = alloca %"struct.cv::dnn::dnn4_v20241223::detail::LayerPin", align 4
  %4 = alloca ptr, align 8
  %5 = alloca ptr, align 8
  %6 = alloca %"class.__gnu_cxx::__normal_iterator", align 8
  %7 = alloca %"class.__gnu_cxx::__normal_iterator", align 8
  %8 = alloca %"class.__gnu_cxx::__normal_iterator", align 8
  store ptr %0, ptr %4, align 8, !tbaa !16
  store ptr %1, ptr %5, align 8, !tbaa !34
  call void @llvm.lifetime.start.p0(i64 8, ptr %6) #3
  %9 = load ptr, ptr %5, align 8, !tbaa !34
  %10 = call ptr @_ZNKSt6vectorIN2cv3dnn14dnn4_v202412236detail8LayerPinESaIS4_EE5beginEv(ptr noundef nonnull align 8 dereferenceable(24) %9) #3
  %11 = getelementptr inbounds nuw %"class.__gnu_cxx::__normal_iterator", ptr %7, i32 0, i32 0
  store ptr %10, ptr %11, align 8
  %12 = load ptr, ptr %5, align 8, !tbaa !34
  %13 = call ptr @_ZNKSt6vectorIN2cv3dnn14dnn4_v202412236detail8LayerPinESaIS4_EE3endEv(ptr noundef nonnull align 8 dereferenceable(24) %12) #3
  %14 = getelementptr inbounds nuw %"class.__gnu_cxx::__normal_iterator", ptr %8, i32 0, i32 0
  store ptr %13, ptr %14, align 8
  %15 = getelementptr inbounds nuw %"class.__gnu_cxx::__normal_iterator", ptr %7, i32 0, i32 0
  %16 = load ptr, ptr %15, align 8
  %17 = getelementptr inbounds nuw %"class.__gnu_cxx::__normal_iterator", ptr %8, i32 0, i32 0
  %18 = load ptr, ptr %17, align 8
  %19 = call ptr @_ZSt11max_elementIN9__gnu_cxx17__normal_iteratorIPKN2cv3dnn14dnn4_v202412236detail8LayerPinESt6vectorIS6_SaIS6_EEEEET_SD_SD_(ptr %16, ptr %18)
  %20 = getelementptr inbounds nuw %"class.__gnu_cxx::__normal_iterator", ptr %6, i32 0, i32 0
  store ptr %19, ptr %20, align 8
  %21 = call noundef nonnull align 4 dereferenceable(8) ptr @_ZNK9__gnu_cxx17__normal_iteratorIPKN2cv3dnn14dnn4_v202412236detail8LayerPinESt6vectorIS5_SaIS5_EEEdeEv(ptr noundef nonnull align 8 dereferenceable(8) %6) #3
  call void @llvm.memcpy.p0.p0.i64(ptr align 4 %3, ptr align 4 %21, i64 8, i1 false), !tbaa.struct !268
  call void @llvm.lifetime.end.p0(i64 8, ptr %6) #3
  %22 = load i64, ptr %3, align 4
  ret i64 %22
}