; Function Attrs: mustprogress nofree norecurse nosync nounwind willreturn memory(read, inaccessiblemem: none) uwtable
define i64 @_ZNK2cv3dnn14dnn4_v202412233Net4Impl17getLatestLayerPinERKSt6vectorINS1_6detail8LayerPinESaIS6_EE(ptr noundef nonnull readnone align 8 captures(none) dereferenceable(504) %0, ptr noundef nonnull readonly align 8 captures(none) dereferenceable(24) %1) local_unnamed_addr #14 align 2 {
  %3 = load ptr, ptr %1, align 8, !tbaa !398
  %4 = getelementptr inbounds nuw i8, ptr %1, i64 8
  %5 = load ptr, ptr %4, align 8, !tbaa !398
  %6 = icmp eq ptr %3, %5
  %7 = getelementptr inbounds nuw i8, ptr %3, i64 8
  %.not12.i.i = icmp eq ptr %7, %5
  %or.cond.i.i = select i1 %6, i1 true, i1 %.not12.i.i
  br i1 %or.cond.i.i, label %_ZSt11max_elementIN9__gnu_cxx17__normal_iteratorIPKN2cv3dnn14dnn4_v202412236detail8LayerPinESt6vectorIS6_SaIS6_EEEEET_SD_SD_.exit, label %.lr.ph.i.i

.lr.ph.i.i:                                       ; preds = %2, %_ZNK9__gnu_cxx5__ops15_Iter_less_iterclINS_17__normal_iteratorIPKN2cv3dnn14dnn4_v202412236detail8LayerPinESt6vectorIS8_SaIS8_EEEESE_EEbT_T0_.exit.thread10.i.i
  %8 = phi ptr [ %20, %_ZNK9__gnu_cxx5__ops15_Iter_less_iterclINS_17__normal_iteratorIPKN2cv3dnn14dnn4_v202412236detail8LayerPinESt6vectorIS8_SaIS8_EEEESE_EEbT_T0_.exit.thread10.i.i ], [ %7, %2 ]
  %.sroa.02.114.i.i = phi ptr [ %19, %_ZNK9__gnu_cxx5__ops15_Iter_less_iterclINS_17__normal_iteratorIPKN2cv3dnn14dnn4_v202412236detail8LayerPinESt6vectorIS8_SaIS8_EEEESE_EEbT_T0_.exit.thread10.i.i ], [ %3, %2 ]
  %.sroa.06.013.i.i = phi ptr [ %8, %_ZNK9__gnu_cxx5__ops15_Iter_less_iterclINS_17__normal_iteratorIPKN2cv3dnn14dnn4_v202412236detail8LayerPinESt6vectorIS8_SaIS8_EEEESE_EEbT_T0_.exit.thread10.i.i ], [ %3, %2 ]
  %9 = load i32, ptr %.sroa.02.114.i.i, align 4, !tbaa !167
  %10 = load i32, ptr %8, align 4, !tbaa !167
  %11 = icmp slt i32 %9, %10
  br i1 %11, label %_ZNK9__gnu_cxx5__ops15_Iter_less_iterclINS_17__normal_iteratorIPKN2cv3dnn14dnn4_v202412236detail8LayerPinESt6vectorIS8_SaIS8_EEEESE_EEbT_T0_.exit.thread.i.i, label %12

12:                                               ; preds = %.lr.ph.i.i
  %13 = icmp eq i32 %9, %10
  br i1 %13, label %_ZNK9__gnu_cxx5__ops15_Iter_less_iterclINS_17__normal_iteratorIPKN2cv3dnn14dnn4_v202412236detail8LayerPinESt6vectorIS8_SaIS8_EEEESE_EEbT_T0_.exit.i.i, label %_ZNK9__gnu_cxx5__ops15_Iter_less_iterclINS_17__normal_iteratorIPKN2cv3dnn14dnn4_v202412236detail8LayerPinESt6vectorIS8_SaIS8_EEEESE_EEbT_T0_.exit.thread10.i.i

_ZNK9__gnu_cxx5__ops15_Iter_less_iterclINS_17__normal_iteratorIPKN2cv3dnn14dnn4_v202412236detail8LayerPinESt6vectorIS8_SaIS8_EEEESE_EEbT_T0_.exit.i.i: ; preds = %12
  %14 = getelementptr inbounds nuw i8, ptr %.sroa.02.114.i.i, i64 4
  %15 = load i32, ptr %14, align 4, !tbaa !269
  %16 = getelementptr inbounds nuw i8, ptr %.sroa.06.013.i.i, i64 12
  %17 = load i32, ptr %16, align 4, !tbaa !269
  %18 = icmp slt i32 %15, %17
  %cond.fr.i.i = freeze i1 %18
  br i1 %cond.fr.i.i, label %_ZNK9__gnu_cxx5__ops15_Iter_less_iterclINS_17__normal_iteratorIPKN2cv3dnn14dnn4_v202412236detail8LayerPinESt6vectorIS8_SaIS8_EEEESE_EEbT_T0_.exit.thread.i.i, label %_ZNK9__gnu_cxx5__ops15_Iter_less_iterclINS_17__normal_iteratorIPKN2cv3dnn14dnn4_v202412236detail8LayerPinESt6vectorIS8_SaIS8_EEEESE_EEbT_T0_.exit.thread10.i.i

_ZNK9__gnu_cxx5__ops15_Iter_less_iterclINS_17__normal_iteratorIPKN2cv3dnn14dnn4_v202412236detail8LayerPinESt6vectorIS8_SaIS8_EEEESE_EEbT_T0_.exit.thread.i.i: ; preds = %_ZNK9__gnu_cxx5__ops15_Iter_less_iterclINS_17__normal_iteratorIPKN2cv3dnn14dnn4_v202412236detail8LayerPinESt6vectorIS8_SaIS8_EEEESE_EEbT_T0_.exit.i.i, %.lr.ph.i.i
  br label %_ZNK9__gnu_cxx5__ops15_Iter_less_iterclINS_17__normal_iteratorIPKN2cv3dnn14dnn4_v202412236detail8LayerPinESt6vectorIS8_SaIS8_EEEESE_EEbT_T0_.exit.thread10.i.i

_ZNK9__gnu_cxx5__ops15_Iter_less_iterclINS_17__normal_iteratorIPKN2cv3dnn14dnn4_v202412236detail8LayerPinESt6vectorIS8_SaIS8_EEEESE_EEbT_T0_.exit.thread10.i.i: ; preds = %_ZNK9__gnu_cxx5__ops15_Iter_less_iterclINS_17__normal_iteratorIPKN2cv3dnn14dnn4_v202412236detail8LayerPinESt6vectorIS8_SaIS8_EEEESE_EEbT_T0_.exit.thread.i.i, %_ZNK9__gnu_cxx5__ops15_Iter_less_iterclINS_17__normal_iteratorIPKN2cv3dnn14dnn4_v202412236detail8LayerPinESt6vectorIS8_SaIS8_EEEESE_EEbT_T0_.exit.i.i, %12
  %19 = phi ptr [ %8, %_ZNK9__gnu_cxx5__ops15_Iter_less_iterclINS_17__normal_iteratorIPKN2cv3dnn14dnn4_v202412236detail8LayerPinESt6vectorIS8_SaIS8_EEEESE_EEbT_T0_.exit.thread.i.i ], [ %.sroa.02.114.i.i, %_ZNK9__gnu_cxx5__ops15_Iter_less_iterclINS_17__normal_iteratorIPKN2cv3dnn14dnn4_v202412236detail8LayerPinESt6vectorIS8_SaIS8_EEEESE_EEbT_T0_.exit.i.i ], [ %.sroa.02.114.i.i, %12 ]
  %20 = getelementptr inbounds nuw i8, ptr %8, i64 8
  %.not.i.i = icmp eq ptr %20, %5
  br i1 %.not.i.i, label %_ZSt11max_elementIN9__gnu_cxx17__normal_iteratorIPKN2cv3dnn14dnn4_v202412236detail8LayerPinESt6vectorIS6_SaIS6_EEEEET_SD_SD_.exit, label %.lr.ph.i.i, !llvm.loop !519

_ZSt11max_elementIN9__gnu_cxx17__normal_iteratorIPKN2cv3dnn14dnn4_v202412236detail8LayerPinESt6vectorIS6_SaIS6_EEEEET_SD_SD_.exit: ; preds = %_ZNK9__gnu_cxx5__ops15_Iter_less_iterclINS_17__normal_iteratorIPKN2cv3dnn14dnn4_v202412236detail8LayerPinESt6vectorIS8_SaIS8_EEEESE_EEbT_T0_.exit.thread10.i.i, %2
  %.sroa.02.0.i.i = phi ptr [ %3, %2 ], [ %19, %_ZNK9__gnu_cxx5__ops15_Iter_less_iterclINS_17__normal_iteratorIPKN2cv3dnn14dnn4_v202412236detail8LayerPinESt6vectorIS8_SaIS8_EEEESE_EEbT_T0_.exit.thread10.i.i ]
  %.sroa.03.0.copyload = load i64, ptr %.sroa.02.0.i.i, align 4
  ret i64 %.sroa.03.0.copyload
}